; ModuleID = 'source-C-CXX/35/658.c'
source_filename = "source-C-CXX/35/658.c"
target datalayout = "e-m:e-p270:32:32-p271:32:32-p272:64:64-i64:64-f80:128-n8:16:32:64-S128"
target triple = "x86_64-pc-linux-gnu"

@.str = private unnamed_addr constant [3 x i8] c"%s\00", align 1
@.str.1 = private unnamed_addr constant [3 x i8] c"NO\00", align 1
@.str.2 = private unnamed_addr constant [4 x i8] c"YES\00", align 1

; Function Attrs: nofree nounwind sspstrong uwtable
define dso_local void @main() local_unnamed_addr #0 {
  %1 = alloca [50 x i8], align 16
  %2 = alloca [50 x i8], align 16
  %3 = getelementptr inbounds [50 x i8], [50 x i8]* %1, i64 0, i64 0
  call void @llvm.lifetime.start.p0i8(i64 50, i8* nonnull %3) #5
  call void @llvm.memset.p0i8.i64(i8* noundef nonnull align 16 dereferenceable(50) %3, i8 0, i64 50, i1 false)
  %4 = getelementptr inbounds [50 x i8], [50 x i8]* %2, i64 0, i64 0
  call void @llvm.lifetime.start.p0i8(i64 50, i8* nonnull %4) #5
  call void @llvm.memset.p0i8.i64(i8* noundef nonnull align 16 dereferenceable(50) %4, i8 0, i64 50, i1 false)
  %5 = call i32 (i8*, ...) @__isoc99_scanf(i8* getelementptr inbounds ([3 x i8], [3 x i8]* @.str, i64 0, i64 0), i8* nonnull %3)
  %6 = call i32 (i8*, ...) @__isoc99_scanf(i8* getelementptr inbounds ([3 x i8], [3 x i8]* @.str, i64 0, i64 0), i8* nonnull %4)
  %7 = call i64 @strlen(i8* noundef nonnull %3) #6
  %8 = trunc i64 %7 to i32
  %9 = call i64 @strlen(i8* noundef nonnull %4) #6
  %10 = trunc i64 %9 to i32
  %11 = icmp eq i32 %10, %8
  br i1 %11, label %12, label %87

12:                                               ; preds = %0
  %13 = icmp sgt i32 %8, 0
  br i1 %13, label %14, label %87

14:                                               ; preds = %12
  %15 = and i64 %7, 4294967295
  br label %16

16:                                               ; preds = %14, %31
  %17 = phi i64 [ 0, %14 ], [ %32, %31 ]
  %18 = getelementptr inbounds [50 x i8], [50 x i8]* %1, i64 0, i64 %17
  %19 = load i8, i8* %18, align 1, !tbaa !5
  br label %20

20:                                               ; preds = %16, %25
  %21 = phi i64 [ 0, %16 ], [ %26, %25 ]
  %22 = getelementptr inbounds [50 x i8], [50 x i8]* %2, i64 0, i64 %21
  %23 = load i8, i8* %22, align 1, !tbaa !5
  %24 = icmp eq i8 %23, %19
  br i1 %24, label %28, label %25

25:                                               ; preds = %20
  %26 = add nuw nsw i64 %21, 1
  %27 = icmp eq i64 %26, %15
  br i1 %27, label %31, label %20, !llvm.loop !8

28:                                               ; preds = %20
  %29 = and i64 %21, 4294967295
  %30 = getelementptr inbounds [50 x i8], [50 x i8]* %2, i64 0, i64 %29
  store i8 0, i8* %30, align 1, !tbaa !5
  br label %31

31:                                               ; preds = %25, %28
  %32 = add nuw nsw i64 %17, 1
  %33 = icmp eq i64 %32, %15
  br i1 %33, label %34, label %16, !llvm.loop !10

34:                                               ; preds = %31
  br i1 %13, label %35, label %87

35:                                               ; preds = %34
  %36 = add nsw i64 %15, -1
  %37 = and i64 %7, 3
  %38 = icmp ult i64 %36, 3
  br i1 %38, label %67, label %39

39:                                               ; preds = %35
  %40 = sub nsw i64 %15, %37
  br label %41

41:                                               ; preds = %41, %39
  %42 = phi i64 [ 0, %39 ], [ %64, %41 ]
  %43 = phi i32 [ 0, %39 ], [ %63, %41 ]
  %44 = phi i64 [ %40, %39 ], [ %65, %41 ]
  %45 = getelementptr inbounds [50 x i8], [50 x i8]* %2, i64 0, i64 %42
  %46 = load i8, i8* %45, align 4, !tbaa !5
  %47 = icmp eq i8 %46, 0
  %48 = or i64 %42, 1
  %49 = getelementptr inbounds [50 x i8], [50 x i8]* %2, i64 0, i64 %48
  %50 = load i8, i8* %49, align 1, !tbaa !5
  %51 = icmp eq i8 %50, 0
  %52 = or i64 %42, 2
  %53 = getelementptr inbounds [50 x i8], [50 x i8]* %2, i64 0, i64 %52
  %54 = load i8, i8* %53, align 2, !tbaa !5
  %55 = icmp eq i8 %54, 0
  %56 = or i64 %42, 3
  %57 = getelementptr inbounds [50 x i8], [50 x i8]* %2, i64 0, i64 %56
  %58 = load i8, i8* %57, align 1, !tbaa !5
  %59 = icmp eq i8 %58, 0
  %60 = select i1 %59, i1 %55, i1 false
  %61 = select i1 %60, i1 %51, i1 false
  %62 = select i1 %61, i1 %47, i1 false
  %63 = select i1 %62, i32 %43, i32 1
  %64 = add nuw nsw i64 %42, 4
  %65 = add i64 %44, -4
  %66 = icmp eq i64 %65, 0
  br i1 %66, label %67, label %41, !llvm.loop !11

67:                                               ; preds = %41, %35
  %68 = phi i32 [ undef, %35 ], [ %63, %41 ]
  %69 = phi i64 [ 0, %35 ], [ %64, %41 ]
  %70 = phi i32 [ 0, %35 ], [ %63, %41 ]
  %71 = icmp eq i64 %37, 0
  br i1 %71, label %83, label %72

72:                                               ; preds = %67, %72
  %73 = phi i64 [ %80, %72 ], [ %69, %67 ]
  %74 = phi i32 [ %79, %72 ], [ %70, %67 ]
  %75 = phi i64 [ %81, %72 ], [ %37, %67 ]
  %76 = getelementptr inbounds [50 x i8], [50 x i8]* %2, i64 0, i64 %73
  %77 = load i8, i8* %76, align 1, !tbaa !5
  %78 = icmp eq i8 %77, 0
  %79 = select i1 %78, i32 %74, i32 1
  %80 = add nuw nsw i64 %73, 1
  %81 = add i64 %75, -1
  %82 = icmp eq i64 %81, 0
  br i1 %82, label %83, label %72, !llvm.loop !12

83:                                               ; preds = %72, %67
  %84 = phi i32 [ %68, %67 ], [ %79, %72 ]
  %85 = icmp eq i32 %84, 0
  %86 = select i1 %85, i8* getelementptr inbounds ([4 x i8], [4 x i8]* @.str.2, i64 0, i64 0), i8* getelementptr inbounds ([3 x i8], [3 x i8]* @.str.1, i64 0, i64 0)
  br label %87

87:                                               ; preds = %83, %34, %12, %0
  %88 = phi i8* [ getelementptr inbounds ([3 x i8], [3 x i8]* @.str.1, i64 0, i64 0), %0 ], [ getelementptr inbounds ([4 x i8], [4 x i8]* @.str.2, i64 0, i64 0), %12 ], [ getelementptr inbounds ([4 x i8], [4 x i8]* @.str.2, i64 0, i64 0), %34 ], [ %86, %83 ]
  %89 = call i32 (i8*, ...) @printf(i8* nonnull dereferenceable(1) %88)
  call void @llvm.lifetime.end.p0i8(i64 50, i8* nonnull %4) #5
  call void @llvm.lifetime.end.p0i8(i64 50, i8* nonnull %3) #5
  ret void
}

; Function Attrs: argmemonly mustprogress nofree nosync nounwind willreturn
declare void @llvm.lifetime.start.p0i8(i64 immarg, i8* nocapture) #1

; Function Attrs: argmemonly mustprogress nofree nounwind willreturn writeonly
declare void @llvm.memset.p0i8.i64(i8* nocapture writeonly, i8, i64, i1 immarg) #2

; Function Attrs: nofree nounwind
declare noundef i32 @__isoc99_scanf(i8* nocapture noundef readonly, ...) local_unnamed_addr #3

; Function Attrs: argmemonly mustprogress nofree nounwind readonly willreturn
declare i64 @strlen(i8* nocapture) local_unnamed_addr #4

; Function Attrs: nofree nounwind
declare noundef i32 @printf(i8* nocapture noundef readonly, ...) local_unnamed_addr #3

; Function Attrs: argmemonly mustprogress nofree nosync nounwind willreturn
declare void @llvm.lifetime.end.p0i8(i64 immarg, i8* nocapture) #1


!llvm.module.flags = !{!0, !1, !2, !3}
!llvm.ident = !{!4}

!0 = !{i32 1, !"wchar_size", i32 4}
!1 = !{i32 7, !"PIC Level", i32 2}
!2 = !{i32 7, !"PIE Level", i32 2}
!3 = !{i32 7, !"uwtable", i32 1}
!4 = !{!"clang version 13.0.0"}
!5 = !{!6, !6, i64 0}
!6 = !{!"omnipotent char", !7, i64 0}
!7 = !{!"Simple C/C++ TBAA"}
!8 = distinct !{!8, !9}
!9 = !{!"llvm.loop.mustprogress"}
!10 = distinct !{!10, !9}
!11 = distinct !{!11, !9}
!12 = distinct !{!12, !13}
!13 = !{!"llvm.loop.unroll.disable"}
